; Function Attrs: nounwind uwtable
define hidden void @zif_array_key_first(ptr noundef %0, ptr noundef %1) local_unnamed_addr #2 {
  %3 = alloca i32, align 4
  %4 = getelementptr inbounds nuw i8, ptr %0, i64 44
  %5 = load i32, ptr %4, align 4, !tbaa !8
  %cond = icmp eq i32 %5, 1
  br i1 %cond, label %7, label %6, !prof !64

6:                                                ; preds = %2
  tail call void @zend_wrong_parameters_count_error(i32 noundef 1, i32 noundef 1) #21
  br label %12

7:                                                ; preds = %2
  %8 = getelementptr inbounds nuw i8, ptr %0, i64 80
  %9 = getelementptr inbounds nuw i8, ptr %0, i64 88
  %10 = load i8, ptr %9, align 8, !tbaa !8
  %11 = icmp eq i8 %10, 7
  br i1 %11, label %.critedge, label %12, !prof !10

12:                                               ; preds = %6, %7
  %.035.ph = phi i32 [ 6, %7 ], [ 0, %6 ]
  %.034.ph = phi ptr [ %8, %7 ], [ null, %6 ]
  %.033.ph = phi i32 [ 9, %7 ], [ 1, %6 ]
  %.0.ph = phi i32 [ 1, %7 ], [ 0, %6 ]
  tail call void @zend_wrong_parameter_error(i32 noundef %.033.ph, i32 noundef %.0.ph, ptr noundef null, i32 noundef %.035.ph, ptr noundef %.034.ph) #21
  br label %14

.critedge:                                        ; preds = %7
  %13 = load ptr, ptr %8, align 8, !tbaa !8
  call void @llvm.lifetime.start.p0(i64 4, ptr nonnull %3) #21
  store i32 0, ptr %3, align 4, !tbaa !68
  call void @zend_hash_get_current_key_zval_ex(ptr noundef %13, ptr noundef %1, ptr noundef nonnull %3) #21
  call void @llvm.lifetime.end.p0(i64 4, ptr nonnull %3) #21
  br label %14

14:                                               ; preds = %12, %.critedge
  ret void
}